target datalayout = "e-m:e-p270:32:32-p271:32:32-p272:64:64-i64:64-i128:128-f80:128-n8:16:32:64-S128"
target triple = "x86_64-pc-linux-gnu"

%struct.__va_list_tag = type { i32, i32, ptr, ptr }

@WARN_ON_MISSING_DATA = global i32 0, align 4
@ERROR_COUNT = internal global i32 0, align 4
@ON_LINE = internal global i8 0, align 1
@stdout = external global ptr, align 8
@DATA_ERROR_COUNT = internal global i32 0, align 4
@HANGING_OUTPUT = internal global i8 0, align 1
@ONE_ERROR = internal global i32 0, align 4
@.str.18 = private unnamed_addr constant [8 x i8] c"[DATA] \00", align 1
@.str.76 = private unnamed_addr constant [4 x i8] c" {\0A\00", align 1
@.str.77 = private unnamed_addr constant [2 x i8] c"!\00", align 1

; Function Attrs: nounwind uwtable
define internal void @go_offline_with_marker(ptr noundef %0) #0 {
  %2 = alloca ptr, align 8
  %3 = alloca i8, align 1
  store ptr %0, ptr %2, align 8, !tbaa !15
  call void @llvm.lifetime.start.p0(i64 1, ptr %3) #12
  %4 = load i8, ptr @ON_LINE, align 1, !tbaa !20
  store i8 %4, ptr %3, align 1, !tbaa !20
  %5 = load i8, ptr @ON_LINE, align 1, !tbaa !20
  %6 = icmp ne i8 %5, 0
  br i1 %6, label %7, label %8

7:                                                ; preds = %1
  call void (ptr, ...) @log_testinfo(ptr noundef @.str.76)
  store i8 0, ptr @ON_LINE, align 1, !tbaa !20
  br label %8

8:                                                ; preds = %7, %1
  %9 = load i8, ptr @HANGING_OUTPUT, align 1, !tbaa !20
  %10 = icmp ne i8 %9, 0
  br i1 %10, label %11, label %15

11:                                               ; preds = %8
  %12 = load i8, ptr %3, align 1, !tbaa !20
  %13 = sext i8 %12 to i32
  %14 = icmp ne i32 %13, 0
  br i1 %14, label %15, label %23

15:                                               ; preds = %11, %8
  %16 = load ptr, ptr %2, align 8, !tbaa !15
  %17 = icmp ne ptr %16, null
  br i1 %17, label %18, label %22

18:                                               ; preds = %15
  %19 = load ptr, ptr %2, align 8, !tbaa !15
  %20 = load ptr, ptr @stdout, align 8, !tbaa !27
  %21 = call i32 @fputs(ptr noundef %19, ptr noundef %20)
  br label %22

22:                                               ; preds = %18, %15
  br label %23

23:                                               ; preds = %22, %11
  call void @llvm.lifetime.end.p0(i64 1, ptr %3) #12
  ret void
}

; Function Attrs: nounwind uwtable
define internal void @first_line_err() #0 {
  call void @go_offline_with_marker(ptr noundef @.str.77)
  ret void
}

; Function Attrs: nounwind uwtable
define void @log_err_status(i32 noundef %0, ptr noundef %1, ...) #0 {
  %3 = alloca i32, align 4
  %4 = alloca ptr, align 8
  %5 = alloca [1 x %struct.__va_list_tag], align 16
  store i32 %0, ptr %3, align 4, !tbaa !18
  store ptr %1, ptr %4, align 8, !tbaa !15
  call void @llvm.lifetime.start.p0(i64 24, ptr %5) #12
  %6 = getelementptr inbounds [1 x %struct.__va_list_tag], ptr %5, i64 0, i64 0
  call void @llvm.va_start.p0(ptr %6)
  %7 = load i32, ptr %3, align 4, !tbaa !18
  %8 = icmp eq i32 %7, 4
  br i1 %8, label %12, label %9

9:                                                ; preds = %2
  %10 = load i32, ptr %3, align 4, !tbaa !18
  %11 = icmp eq i32 %10, 2
  br i1 %11, label %12, label %34

12:                                               ; preds = %9, %2
  %13 = load i32, ptr @DATA_ERROR_COUNT, align 4, !tbaa !18
  %14 = add nsw i32 %13, 1
  store i32 %14, ptr @DATA_ERROR_COUNT, align 4, !tbaa !18
  %15 = load i32, ptr @WARN_ON_MISSING_DATA, align 4, !tbaa !18
  %16 = icmp eq i32 %15, 0
  br i1 %16, label %17, label %30

17:                                               ; preds = %12
  call void @first_line_err()
  %18 = load ptr, ptr %4, align 8, !tbaa !15
  %19 = call ptr @strchr(ptr noundef %18, i32 noundef 10) #14
  %20 = icmp ne ptr %19, null
  br i1 %20, label %21, label %24

21:                                               ; preds = %17
  %22 = load i32, ptr @ERROR_COUNT, align 4, !tbaa !18
  %23 = add nsw i32 %22, 1
  store i32 %23, ptr @ERROR_COUNT, align 4, !tbaa !18
  br label %27

24:                                               ; preds = %17
  %25 = load i32, ptr @ONE_ERROR, align 4, !tbaa !18
  %26 = add nsw i32 %25, 1
  store i32 %26, ptr @ONE_ERROR, align 4, !tbaa !18
  br label %27

27:                                               ; preds = %24, %21
  %28 = load ptr, ptr %4, align 8, !tbaa !15
  %29 = getelementptr inbounds [1 x %struct.__va_list_tag], ptr %5, i64 0, i64 0
  call void @vlog_err(ptr noundef null, ptr noundef %28, ptr noundef %29)
  br label %33

30:                                               ; preds = %12
  %31 = load ptr, ptr %4, align 8, !tbaa !15
  %32 = getelementptr inbounds [1 x %struct.__va_list_tag], ptr %5, i64 0, i64 0
  call void @vlog_info(ptr noundef @.str.18, ptr noundef %31, ptr noundef %32)
  br label %33

33:                                               ; preds = %30, %27
  br label %47

34:                                               ; preds = %9
  call void @first_line_err()
  %35 = load ptr, ptr %4, align 8, !tbaa !15
  %36 = call ptr @strchr(ptr noundef %35, i32 noundef 10) #14
  %37 = icmp ne ptr %36, null
  br i1 %37, label %38, label %41

38:                                               ; preds = %34
  %39 = load i32, ptr @ERROR_COUNT, align 4, !tbaa !18
  %40 = add nsw i32 %39, 1
  store i32 %40, ptr @ERROR_COUNT, align 4, !tbaa !18
  br label %44

41:                                               ; preds = %34
  %42 = load i32, ptr @ONE_ERROR, align 4, !tbaa !18
  %43 = add nsw i32 %42, 1
  store i32 %43, ptr @ONE_ERROR, align 4, !tbaa !18
  br label %44

44:                                               ; preds = %41, %38
  %45 = load ptr, ptr %4, align 8, !tbaa !15
  %46 = getelementptr inbounds [1 x %struct.__va_list_tag], ptr %5, i64 0, i64 0
  call void @vlog_err(ptr noundef null, ptr noundef %45, ptr noundef %46)
  br label %47

47:                                               ; preds = %44, %33
  %48 = getelementptr inbounds [1 x %struct.__va_list_tag], ptr %5, i64 0, i64 0
  call void @llvm.va_end.p0(ptr %48)
  call void @llvm.lifetime.end.p0(i64 24, ptr %5) #12
  ret void
}