; Function Attrs: nofree nounwind uwtable
define void @log_err_status(i32 noundef %0, ptr noundef readonly %1, ...) local_unnamed_addr #2 {
  %3 = alloca [1 x %struct.__va_list_tag], align 16
  call void @llvm.lifetime.start.p0(i64 24, ptr nonnull %3) #23
  call void @llvm.va_start.p0(ptr nonnull %3)
  switch i32 %0, label %17 [
    i32 4, label %4
    i32 2, label %4
  ]

4:                                                ; preds = %2, %2
  %5 = load i32, ptr @DATA_ERROR_COUNT, align 4, !tbaa !18
  %6 = add nsw i32 %5, 1
  store i32 %6, ptr @DATA_ERROR_COUNT, align 4, !tbaa !18
  %7 = load i32, ptr @WARN_ON_MISSING_DATA, align 4, !tbaa !18
  %8 = icmp eq i32 %7, 0
  br i1 %8, label %9, label %16

9:                                                ; preds = %4
  %.b.i.i = load i1, ptr @ON_LINE, align 1
  br i1 %.b.i.i, label %.thread.i, label %10

.thread.i:                                        ; preds = %9
  call void (ptr, ...) @log_testinfo(ptr noundef nonnull @.str.76)
  store i1 false, ptr @ON_LINE, align 1
  br label %11

10:                                               ; preds = %9
  %.b6.i.i = load i1, ptr @HANGING_OUTPUT, align 1
  br i1 %.b6.i.i, label %first_line_err.exit, label %11

11:                                               ; preds = %10, %.thread.i
  %12 = load ptr, ptr @stdout, align 8, !tbaa !16
  %fputc.i = call i32 @fputc(i32 33, ptr %12)
  br label %first_line_err.exit

first_line_err.exit:                              ; preds = %10, %11
  %13 = call ptr @strchr(ptr noundef nonnull dereferenceable(1) %1, i32 noundef 10) #25
  %.not7 = icmp eq ptr %13, null
  %ONE_ERROR.ERROR_COUNT = select i1 %.not7, ptr @ONE_ERROR, ptr @ERROR_COUNT
  %14 = load i32, ptr %ONE_ERROR.ERROR_COUNT, align 4, !tbaa !18
  %15 = add nsw i32 %14, 1
  store i32 %15, ptr %ONE_ERROR.ERROR_COUNT, align 4, !tbaa !18
  call fastcc void @vlog_err(ptr noundef nonnull %1, ptr noundef %3)
  br label %24

16:                                               ; preds = %4
  call void @vlog_info(ptr noundef nonnull @.str.18, ptr noundef %1, ptr noundef nonnull %3)
  br label %24

17:                                               ; preds = %2
  %.b.i.i8 = load i1, ptr @ON_LINE, align 1
  br i1 %.b.i.i8, label %.thread.i11, label %18

.thread.i11:                                      ; preds = %17
  call void (ptr, ...) @log_testinfo(ptr noundef nonnull @.str.76)
  store i1 false, ptr @ON_LINE, align 1
  br label %19

18:                                               ; preds = %17
  %.b6.i.i9 = load i1, ptr @HANGING_OUTPUT, align 1
  br i1 %.b6.i.i9, label %first_line_err.exit12, label %19

19:                                               ; preds = %18, %.thread.i11
  %20 = load ptr, ptr @stdout, align 8, !tbaa !16
  %fputc.i10 = call i32 @fputc(i32 33, ptr %20)
  br label %first_line_err.exit12

first_line_err.exit12:                            ; preds = %18, %19
  %21 = call ptr @strchr(ptr noundef nonnull dereferenceable(1) %1, i32 noundef 10) #25
  %.not = icmp eq ptr %21, null
  %ONE_ERROR.ERROR_COUNT18 = select i1 %.not, ptr @ONE_ERROR, ptr @ERROR_COUNT
  %22 = load i32, ptr %ONE_ERROR.ERROR_COUNT18, align 4, !tbaa !18
  %23 = add nsw i32 %22, 1
  store i32 %23, ptr %ONE_ERROR.ERROR_COUNT18, align 4, !tbaa !18
  call fastcc void @vlog_err(ptr noundef nonnull %1, ptr noundef %3)
  br label %24

24:                                               ; preds = %first_line_err.exit, %16, %first_line_err.exit12
  call void @llvm.va_end.p0(ptr nonnull %3)
  call void @llvm.lifetime.end.p0(i64 24, ptr nonnull %3) #23
  ret void
}